target datalayout = "e-m:e-p270:32:32-p271:32:32-p272:64:64-i64:64-f80:128-n8:16:32:64-S128"
target triple = "x86_64-pc-linux-gnu"

@.str = private unnamed_addr constant [3 x i8] c"%d\00", align 1
@.str.1 = private unnamed_addr constant [4 x i8] c"%d\0A\00", align 1

; Function Attrs: noinline nounwind uwtable
define dso_local void @main() #0 {
  %1 = alloca [6 x i32], align 16
  %2 = alloca i32, align 4
  store i32 0, i32* %2, align 4
  br label %3

3:                                                ; preds = %19, %0
  %4 = load i32, i32* %2, align 4
  %5 = icmp slt i32 %4, 6
  br i1 %5, label %6, label %22

6:                                                ; preds = %3
  %7 = load i32, i32* %2, align 4
  %8 = sext i32 %7 to i64
  %9 = getelementptr inbounds [6 x i32], [6 x i32]* %1, i64 0, i64 %8
  %10 = call i32 (i8*, ...) @__isoc99_scanf(i8* getelementptr inbounds ([3 x i8], [3 x i8]* @.str, i64 0, i64 0), i32* %9)
  %11 = load i32, i32* %2, align 4
  %12 = sext i32 %11 to i64
  %13 = getelementptr inbounds [6 x i32], [6 x i32]* %1, i64 0, i64 %12
  %14 = load i32, i32* %13, align 4
  %15 = call i32 @reverse(i32 %14)
  %16 = load i32, i32* %2, align 4
  %17 = sext i32 %16 to i64
  %18 = getelementptr inbounds [6 x i32], [6 x i32]* %1, i64 0, i64 %17
  store i32 %15, i32* %18, align 4
  br label %19

19:                                               ; preds = %6
  %20 = load i32, i32* %2, align 4
  %21 = add nsw i32 %20, 1
  store i32 %21, i32* %2, align 4
  br label %3

22:                                               ; preds = %3
  store i32 0, i32* %2, align 4
  br label %23

23:                                               ; preds = %32, %22
  %24 = load i32, i32* %2, align 4
  %25 = icmp slt i32 %24, 6
  br i1 %25, label %26, label %35

26:                                               ; preds = %23
  %27 = load i32, i32* %2, align 4
  %28 = sext i32 %27 to i64
  %29 = getelementptr inbounds [6 x i32], [6 x i32]* %1, i64 0, i64 %28
  %30 = load i32, i32* %29, align 4
  %31 = call i32 (i8*, ...) @printf(i8* getelementptr inbounds ([4 x i8], [4 x i8]* @.str.1, i64 0, i64 0), i32 %30)
  br label %32

32:                                               ; preds = %26
  %33 = load i32, i32* %2, align 4
  %34 = add nsw i32 %33, 1
  store i32 %34, i32* %2, align 4
  br label %23

35:                                               ; preds = %23
  ret void
}

; Function Attrs: noinline nounwind uwtable
define dso_local i32 @reverse(i32 %0) #0 {
  %2 = alloca i32, align 4
  %3 = alloca i32, align 4
  %4 = alloca [20 x i32], align 16
  %5 = alloca i32, align 4
  %6 = alloca i32, align 4
  %7 = alloca i32, align 4
  %8 = alloca i32, align 4
  store i32 %0, i32* %3, align 4
  store i32 0, i32* %8, align 4
  %9 = load i32, i32* %3, align 4
  %10 = icmp eq i32 %9, 0
  br i1 %10, label %11, label %12

11:                                               ; preds = %1
  store i32 0, i32* %2, align 4
  br label %125

12:                                               ; preds = %1
  %13 = load i32, i32* %3, align 4
  %14 = icmp sgt i32 %13, 0
  br i1 %14, label %15, label %66

15:                                               ; preds = %12
  store i32 1, i32* %5, align 4
  br label %16

16:                                               ; preds = %38, %15
  %17 = load i32, i32* %5, align 4
  %18 = icmp slt i32 %17, 20
  br i1 %18, label %19, label %41

19:                                               ; preds = %16
  %20 = load i32, i32* %3, align 4
  %21 = icmp eq i32 %20, 0
  br i1 %21, label %22, label %25

22:                                               ; preds = %19
  %23 = load i32, i32* %5, align 4
  %24 = sub nsw i32 %23, 1
  store i32 %24, i32* %6, align 4
  br label %41

25:                                               ; preds = %19
  %26 = load i32, i32* %3, align 4
  %27 = srem i32 %26, 10
  %28 = load i32, i32* %5, align 4
  %29 = sext i32 %28 to i64
  %30 = getelementptr inbounds [20 x i32], [20 x i32]* %4, i64 0, i64 %29
  store i32 %27, i32* %30, align 4
  %31 = load i32, i32* %3, align 4
  %32 = load i32, i32* %5, align 4
  %33 = sext i32 %32 to i64
  %34 = getelementptr inbounds [20 x i32], [20 x i32]* %4, i64 0, i64 %33
  %35 = load i32, i32* %34, align 4
  %36 = sub nsw i32 %31, %35
  %37 = sdiv i32 %36, 10
  store i32 %37, i32* %3, align 4
  br label %38

38:                                               ; preds = %25
  %39 = load i32, i32* %5, align 4
  %40 = add nsw i32 %39, 1
  store i32 %40, i32* %5, align 4
  br label %16

41:                                               ; preds = %22, %16
  store i32 1, i32* %5, align 4
  br label %42

42:                                               ; preds = %61, %41
  %43 = load i32, i32* %5, align 4
  %44 = load i32, i32* %6, align 4
  %45 = icmp sle i32 %43, %44
  br i1 %45, label %46, label %64

46:                                               ; preds = %42
  %47 = load i32, i32* %6, align 4
  %48 = load i32, i32* %5, align 4
  %49 = sub nsw i32 %47, %48
  %50 = sitofp i32 %49 to double
  %51 = call double @pow(double 1.000000e+01, double %50) #4
  %52 = fptosi double %51 to i32
  store i32 %52, i32* %7, align 4
  %53 = load i32, i32* %8, align 4
  %54 = load i32, i32* %5, align 4
  %55 = sext i32 %54 to i64
  %56 = getelementptr inbounds [20 x i32], [20 x i32]* %4, i64 0, i64 %55
  %57 = load i32, i32* %56, align 4
  %58 = load i32, i32* %7, align 4
  %59 = mul nsw i32 %57, %58
  %60 = add nsw i32 %53, %59
  store i32 %60, i32* %8, align 4
  br label %61

61:                                               ; preds = %46
  %62 = load i32, i32* %5, align 4
  %63 = add nsw i32 %62, 1
  store i32 %63, i32* %5, align 4
  br label %42

64:                                               ; preds = %42
  %65 = load i32, i32* %8, align 4
  store i32 %65, i32* %2, align 4
  br label %125

66:                                               ; preds = %12
  %67 = load i32, i32* %3, align 4
  %68 = icmp slt i32 %67, 0
  br i1 %68, label %69, label %125

69:                                               ; preds = %66
  %70 = load i32, i32* %3, align 4
  %71 = sitofp i32 %70 to double
  %72 = call double @llvm.fabs.f64(double %71)
  %73 = fptosi double %72 to i32
  store i32 %73, i32* %3, align 4
  store i32 1, i32* %5, align 4
  br label %74

74:                                               ; preds = %96, %69
  %75 = load i32, i32* %5, align 4
  %76 = icmp slt i32 %75, 20
  br i1 %76, label %77, label %99

77:                                               ; preds = %74
  %78 = load i32, i32* %3, align 4
  %79 = icmp eq i32 %78, 0
  br i1 %79, label %80, label %83

80:                                               ; preds = %77
  %81 = load i32, i32* %5, align 4
  %82 = sub nsw i32 %81, 1
  store i32 %82, i32* %6, align 4
  br label %99

83:                                               ; preds = %77
  %84 = load i32, i32* %3, align 4
  %85 = srem i32 %84, 10
  %86 = load i32, i32* %5, align 4
  %87 = sext i32 %86 to i64
  %88 = getelementptr inbounds [20 x i32], [20 x i32]* %4, i64 0, i64 %87
  store i32 %85, i32* %88, align 4
  %89 = load i32, i32* %3, align 4
  %90 = load i32, i32* %5, align 4
  %91 = sext i32 %90 to i64
  %92 = getelementptr inbounds [20 x i32], [20 x i32]* %4, i64 0, i64 %91
  %93 = load i32, i32* %92, align 4
  %94 = sub nsw i32 %89, %93
  %95 = sdiv i32 %94, 10
  store i32 %95, i32* %3, align 4
  br label %96

96:                                               ; preds = %83
  %97 = load i32, i32* %5, align 4
  %98 = add nsw i32 %97, 1
  store i32 %98, i32* %5, align 4
  br label %74

99:                                               ; preds = %80, %74
  store i32 1, i32* %5, align 4
  br label %100

100:                                              ; preds = %119, %99
  %101 = load i32, i32* %5, align 4
  %102 = load i32, i32* %6, align 4
  %103 = icmp sle i32 %101, %102
  br i1 %103, label %104, label %122

104:                                              ; preds = %100
  %105 = load i32, i32* %6, align 4
  %106 = load i32, i32* %5, align 4
  %107 = sub nsw i32 %105, %106
  %108 = sitofp i32 %107 to double
  %109 = call double @pow(double 1.000000e+01, double %108) #4
  %110 = fptosi double %109 to i32
  store i32 %110, i32* %7, align 4
  %111 = load i32, i32* %8, align 4
  %112 = load i32, i32* %5, align 4
  %113 = sext i32 %112 to i64
  %114 = getelementptr inbounds [20 x i32], [20 x i32]* %4, i64 0, i64 %113
  %115 = load i32, i32* %114, align 4
  %116 = load i32, i32* %7, align 4
  %117 = mul nsw i32 %115, %116
  %118 = add nsw i32 %111, %117
  store i32 %118, i32* %8, align 4
  br label %119

119:                                              ; preds = %104
  %120 = load i32, i32* %5, align 4
  %121 = add nsw i32 %120, 1
  store i32 %121, i32* %5, align 4
  br label %100

122:                                              ; preds = %100
  %123 = load i32, i32* %8, align 4
  %124 = sub nsw i32 0, %123
  store i32 %124, i32* %2, align 4
  br label %125

125:                                              ; preds = %11, %64, %122, %66
  %126 = load i32, i32* %2, align 4
  ret i32 %126
}